target datalayout = "e-m:e-p270:32:32-p271:32:32-p272:64:64-i64:64-i128:128-f80:128-n8:16:32:64-S128"
target triple = "x86_64-unknown-linux-gnu"

%"class.std::__cxx11::basic_string" = type { %"struct.std::__cxx11::basic_string<char>::_Alloc_hider", i64, %union.anon }
%"struct.std::__cxx11::basic_string<char>::_Alloc_hider" = type { ptr }
%union.anon = type { i64, [8 x i8] }
%"class.openvdb::v11_0::io::GridDescriptor" = type { %"class.std::__cxx11::basic_string", %"class.std::__cxx11::basic_string", %"class.std::__cxx11::basic_string", %"class.std::__cxx11::basic_string", i8, i64, i64, i64 }

@_ZN7openvdb5v11_02io12_GLOBAL__N_13SEPE = internal global ptr @.str.13, align 8

; Function Attrs: mustprogress uwtable
define void @_ZN7openvdb5v11_02io14GridDescriptor11stripSuffixERKNSt7__cxx1112basic_stringIcSt11char_traitsIcESaIcEEE(ptr noalias sret(%"class.std::__cxx11::basic_string") align 8 %agg.result, ptr noundef nonnull align 8 dereferenceable(32) %name) #4 align 2 {
entry:
  %result.ptr = alloca ptr, align 8
  %name.addr = alloca ptr, align 8
  store ptr %agg.result, ptr %result.ptr, align 8
  store ptr %name, ptr %name.addr, align 8
  %0 = load ptr, ptr %name.addr, align 8
  %1 = load ptr, ptr %name.addr, align 8
  %2 = load ptr, ptr @_ZN7openvdb5v11_02io12_GLOBAL__N_13SEPE, align 8
  %call = call noundef i64 @_ZNKSt7__cxx1112basic_stringIcSt11char_traitsIcESaIcEE4findEPKcm(ptr noundef nonnull align 8 dereferenceable(32) %1, ptr noundef %2, i64 noundef 0) #3
  call void @_ZNKSt7__cxx1112basic_stringIcSt11char_traitsIcESaIcEE6substrEmm(ptr sret(%"class.std::__cxx11::basic_string") align 8 %agg.result, ptr noundef nonnull align 8 dereferenceable(32) %0, i64 noundef 0, i64 noundef %call)
  ret void
}

; Function Attrs: mustprogress uwtable
define void @_ZN7openvdb5v11_02io14GridDescriptorC2ERKNSt7__cxx1112basic_stringIcSt11char_traitsIcESaIcEEESA_b(ptr noundef nonnull align 8 dereferenceable(160) %this, ptr noundef nonnull align 8 dereferenceable(32) %name, ptr noundef nonnull align 8 dereferenceable(32) %type, i1 noundef zeroext %half) unnamed_addr #4 align 2 personality ptr @__gxx_personality_v0 {
entry:
  %this.addr = alloca ptr, align 8
  %name.addr = alloca ptr, align 8
  %type.addr = alloca ptr, align 8
  %half.addr = alloca i8, align 1
  %exn.slot = alloca ptr, align 8
  %ehselector.slot = alloca i32, align 4
  store ptr %this, ptr %this.addr, align 8
  store ptr %name, ptr %name.addr, align 8
  store ptr %type, ptr %type.addr, align 8
  %frombool = zext i1 %half to i8
  store i8 %frombool, ptr %half.addr, align 1
  %this1 = load ptr, ptr %this.addr, align 8
  %mGridName = getelementptr inbounds %"class.openvdb::v11_0::io::GridDescriptor", ptr %this1, i32 0, i32 0
  %0 = load ptr, ptr %name.addr, align 8
  call void @_ZN7openvdb5v11_02io14GridDescriptor11stripSuffixERKNSt7__cxx1112basic_stringIcSt11char_traitsIcESaIcEEE(ptr sret(%"class.std::__cxx11::basic_string") align 8 %mGridName, ptr noundef nonnull align 8 dereferenceable(32) %0)
  %mUniqueName = getelementptr inbounds %"class.openvdb::v11_0::io::GridDescriptor", ptr %this1, i32 0, i32 1
  %1 = load ptr, ptr %name.addr, align 8
  invoke void @_ZNSt7__cxx1112basic_stringIcSt11char_traitsIcESaIcEEC1ERKS4_(ptr noundef nonnull align 8 dereferenceable(32) %mUniqueName, ptr noundef nonnull align 8 dereferenceable(32) %1)
          to label %invoke.cont unwind label %lpad

invoke.cont:                                      ; preds = %entry
  %mInstanceParentName = getelementptr inbounds %"class.openvdb::v11_0::io::GridDescriptor", ptr %this1, i32 0, i32 2
  call void @_ZNSt7__cxx1112basic_stringIcSt11char_traitsIcESaIcEEC1Ev(ptr noundef nonnull align 8 dereferenceable(32) %mInstanceParentName) #3
  %mGridType = getelementptr inbounds %"class.openvdb::v11_0::io::GridDescriptor", ptr %this1, i32 0, i32 3
  %2 = load ptr, ptr %type.addr, align 8
  invoke void @_ZNSt7__cxx1112basic_stringIcSt11char_traitsIcESaIcEEC1ERKS4_(ptr noundef nonnull align 8 dereferenceable(32) %mGridType, ptr noundef nonnull align 8 dereferenceable(32) %2)
          to label %invoke.cont3 unwind label %lpad2

invoke.cont3:                                     ; preds = %invoke.cont
  %mSaveFloatAsHalf = getelementptr inbounds %"class.openvdb::v11_0::io::GridDescriptor", ptr %this1, i32 0, i32 4
  %3 = load i8, ptr %half.addr, align 1
  %tobool = trunc i8 %3 to i1
  %frombool4 = zext i1 %tobool to i8
  store i8 %frombool4, ptr %mSaveFloatAsHalf, align 8
  %mGridPos = getelementptr inbounds %"class.openvdb::v11_0::io::GridDescriptor", ptr %this1, i32 0, i32 5
  store i64 0, ptr %mGridPos, align 8
  %mBlockPos = getelementptr inbounds %"class.openvdb::v11_0::io::GridDescriptor", ptr %this1, i32 0, i32 6
  store i64 0, ptr %mBlockPos, align 8
  %mEndPos = getelementptr inbounds %"class.openvdb::v11_0::io::GridDescriptor", ptr %this1, i32 0, i32 7
  store i64 0, ptr %mEndPos, align 8
  ret void

lpad:                                             ; preds = %entry
  %4 = landingpad { ptr, i32 }
          cleanup
  %5 = extractvalue { ptr, i32 } %4, 0
  store ptr %5, ptr %exn.slot, align 8
  %6 = extractvalue { ptr, i32 } %4, 1
  store i32 %6, ptr %ehselector.slot, align 4
  br label %ehcleanup

lpad2:                                            ; preds = %invoke.cont
  %7 = landingpad { ptr, i32 }
          cleanup
  %8 = extractvalue { ptr, i32 } %7, 0
  store ptr %8, ptr %exn.slot, align 8
  %9 = extractvalue { ptr, i32 } %7, 1
  store i32 %9, ptr %ehselector.slot, align 4
  call void @_ZNSt7__cxx1112basic_stringIcSt11char_traitsIcESaIcEED1Ev(ptr noundef nonnull align 8 dereferenceable(32) %mInstanceParentName) #3
  call void @_ZNSt7__cxx1112basic_stringIcSt11char_traitsIcESaIcEED1Ev(ptr noundef nonnull align 8 dereferenceable(32) %mUniqueName) #3
  br label %ehcleanup

ehcleanup:                                        ; preds = %lpad2, %lpad
  call void @_ZNSt7__cxx1112basic_stringIcSt11char_traitsIcESaIcEED1Ev(ptr noundef nonnull align 8 dereferenceable(32) %mGridName) #3
  br label %eh.resume

eh.resume:                                        ; preds = %ehcleanup
  %exn = load ptr, ptr %exn.slot, align 8
  %sel = load i32, ptr %ehselector.slot, align 4
  %lpad.val = insertvalue { ptr, i32 } poison, ptr %exn, 0
  %lpad.val5 = insertvalue { ptr, i32 } %lpad.val, i32 %sel, 1
  resume { ptr, i32 } %lpad.val5
}