; Function Attrs: mustprogress uwtable
define void @_ZN7openvdb5v11_02io14GridDescriptorC2ERKNSt7__cxx1112basic_stringIcSt11char_traitsIcESaIcEEESA_b(ptr noundef nonnull align 8 dereferenceable(160) %this, ptr noundef nonnull align 8 dereferenceable(32) %name, ptr noundef nonnull align 8 dereferenceable(32) %type, i1 noundef zeroext %half) unnamed_addr #5 align 2 personality ptr @__gxx_personality_v0 {
entry:
  %call.i = tail call noundef i64 @_ZNKSt7__cxx1112basic_stringIcSt11char_traitsIcESaIcEE4findEPKcm(ptr noundef nonnull align 8 dereferenceable(32) %name, ptr noundef nonnull @.str.13, i64 noundef 0) #11, !noalias !4
  tail call void @_ZNKSt7__cxx1112basic_stringIcSt11char_traitsIcESaIcEE6substrEmm(ptr nonnull sret(%"class.std::__cxx11::basic_string") align 8 %this, ptr noundef nonnull align 8 dereferenceable(32) %name, i64 noundef 0, i64 noundef %call.i)
  %mUniqueName = getelementptr inbounds i8, ptr %this, i64 32
  invoke void @_ZNSt7__cxx1112basic_stringIcSt11char_traitsIcESaIcEEC1ERKS4_(ptr noundef nonnull align 8 dereferenceable(32) %mUniqueName, ptr noundef nonnull align 8 dereferenceable(32) %name)
          to label %invoke.cont unwind label %lpad

invoke.cont:                                      ; preds = %entry
  %mInstanceParentName = getelementptr inbounds i8, ptr %this, i64 64
  tail call void @_ZNSt7__cxx1112basic_stringIcSt11char_traitsIcESaIcEEC1Ev(ptr noundef nonnull align 8 dereferenceable(32) %mInstanceParentName) #11
  %mGridType = getelementptr inbounds i8, ptr %this, i64 96
  invoke void @_ZNSt7__cxx1112basic_stringIcSt11char_traitsIcESaIcEEC1ERKS4_(ptr noundef nonnull align 8 dereferenceable(32) %mGridType, ptr noundef nonnull align 8 dereferenceable(32) %type)
          to label %invoke.cont3 unwind label %lpad2

invoke.cont3:                                     ; preds = %invoke.cont
  %frombool = zext i1 %half to i8
  %mSaveFloatAsHalf = getelementptr inbounds i8, ptr %this, i64 128
  store i8 %frombool, ptr %mSaveFloatAsHalf, align 8
  %mGridPos = getelementptr inbounds i8, ptr %this, i64 136
  tail call void @llvm.memset.p0.i64(ptr noundef nonnull align 8 dereferenceable(24) %mGridPos, i8 0, i64 24, i1 false)
  ret void

lpad:                                             ; preds = %entry
  %0 = landingpad { ptr, i32 }
          cleanup
  br label %ehcleanup

lpad2:                                            ; preds = %invoke.cont
  %1 = landingpad { ptr, i32 }
          cleanup
  tail call void @_ZNSt7__cxx1112basic_stringIcSt11char_traitsIcESaIcEED1Ev(ptr noundef nonnull align 8 dereferenceable(32) %mInstanceParentName) #11
  tail call void @_ZNSt7__cxx1112basic_stringIcSt11char_traitsIcESaIcEED1Ev(ptr noundef nonnull align 8 dereferenceable(32) %mUniqueName) #11
  br label %ehcleanup

ehcleanup:                                        ; preds = %lpad2, %lpad
  %.pn = phi { ptr, i32 } [ %1, %lpad2 ], [ %0, %lpad ]
  tail call void @_ZNSt7__cxx1112basic_stringIcSt11char_traitsIcESaIcEED1Ev(ptr noundef nonnull align 8 dereferenceable(32) %this) #11
  resume { ptr, i32 } %.pn
}